target datalayout = "e-m:e-p270:32:32-p271:32:32-p272:64:64-i64:64-i128:128-f80:128-n8:16:32:64-S128"
target triple = "x86_64-pc-linux-gnu"

%struct.pg_atomic_uint32 = type { i32 }
%struct.LWLock = type { i16, %struct.pg_atomic_uint32, %struct.proclist_head }
%struct.proclist_head = type { i32, i32 }
%union.LWLockPadded = type { %struct.LWLock, [112 x i8] }
%struct.FullTransactionId = type { i64 }
%struct.dirent = type { i64, i64, i16, i8, [256 x i8] }

@MainLWLockArray = external global ptr, align 8
@.str.14 = private unnamed_addr constant [12 x i8] c"pg_twophase\00", align 1
@.str.17 = private unnamed_addr constant [17 x i8] c"0123456789ABCDEF\00", align 1

; Function Attrs: inlinehint nounwind uwtable
define internal i64 @FullTransactionIdFromU64(i64 noundef %0) #5 {
  %2 = alloca %struct.FullTransactionId, align 8
  %3 = alloca i64, align 8
  store i64 %0, ptr %3, align 8
  %4 = load i64, ptr %3, align 8
  %5 = getelementptr inbounds nuw %struct.FullTransactionId, ptr %2, i32 0, i32 0
  store i64 %4, ptr %5, align 8
  %6 = getelementptr inbounds nuw %struct.FullTransactionId, ptr %2, i32 0, i32 0
  %7 = load i64, ptr %6, align 8
  ret i64 %7
}

; Function Attrs: nounwind uwtable
define dso_local void @restoreTwoPhaseData() #0 {
  %1 = alloca ptr, align 8
  %2 = alloca ptr, align 8
  %3 = alloca i32, align 4
  %4 = alloca %struct.FullTransactionId, align 8
  %5 = alloca ptr, align 8
  %6 = alloca %struct.FullTransactionId, align 8
  %7 = alloca i32, align 4
  call void @llvm.lifetime.start.p0(i64 8, ptr %1) #12
  call void @llvm.lifetime.start.p0(i64 8, ptr %2) #12
  %8 = load ptr, ptr @MainLWLockArray, align 8
  %9 = getelementptr inbounds %union.LWLockPadded, ptr %8, i64 18
  %10 = call zeroext i1 @LWLockAcquire(ptr noundef %9, i32 noundef 0)
  %11 = call ptr @AllocateDir(ptr noundef @.str.14)
  store ptr %11, ptr %1, align 8
  br label %12

12:                                               ; preds = %48, %45, %0
  %13 = load ptr, ptr %1, align 8
  %14 = call ptr @ReadDir(ptr noundef %13, ptr noundef @.str.14)
  store ptr %14, ptr %2, align 8
  %15 = icmp ne ptr %14, null
  br i1 %15, label %16, label %49

16:                                               ; preds = %12
  %17 = load ptr, ptr %2, align 8
  %18 = getelementptr inbounds nuw %struct.dirent, ptr %17, i32 0, i32 4
  %19 = getelementptr inbounds [256 x i8], ptr %18, i64 0, i64 0
  %20 = call i64 @strlen(ptr noundef %19) #14
  %21 = icmp eq i64 %20, 16
  br i1 %21, label %22, label %48

22:                                               ; preds = %16
  %23 = load ptr, ptr %2, align 8
  %24 = getelementptr inbounds nuw %struct.dirent, ptr %23, i32 0, i32 4
  %25 = getelementptr inbounds [256 x i8], ptr %24, i64 0, i64 0
  %26 = call i64 @strspn(ptr noundef %25, ptr noundef @.str.17) #14
  %27 = icmp eq i64 %26, 16
  br i1 %27, label %28, label %48

28:                                               ; preds = %22
  call void @llvm.lifetime.start.p0(i64 4, ptr %3) #12
  call void @llvm.lifetime.start.p0(i64 8, ptr %4) #12
  call void @llvm.lifetime.start.p0(i64 8, ptr %5) #12
  call void @llvm.lifetime.start.p0(i64 8, ptr %6) #12
  %29 = load ptr, ptr %2, align 8
  %30 = getelementptr inbounds nuw %struct.dirent, ptr %29, i32 0, i32 4
  %31 = getelementptr inbounds [256 x i8], ptr %30, i64 0, i64 0
  %32 = call i64 @strtoul(ptr noundef %31, ptr noundef null, i32 noundef 16) #12
  %33 = call i64 @FullTransactionIdFromU64(i64 noundef %32)
  %34 = getelementptr inbounds nuw %struct.FullTransactionId, ptr %6, i32 0, i32 0
  store i64 %33, ptr %34, align 8
  call void @llvm.memcpy.p0.p0.i64(ptr align 8 %4, ptr align 8 %6, i64 8, i1 false)
  call void @llvm.lifetime.end.p0(i64 8, ptr %6) #12
  %35 = getelementptr inbounds nuw %struct.FullTransactionId, ptr %4, i32 0, i32 0
  %36 = load i64, ptr %35, align 8
  %37 = trunc i64 %36 to i32
  store i32 %37, ptr %3, align 4
  %38 = load i32, ptr %3, align 4
  %39 = call ptr @ProcessTwoPhaseBuffer(i32 noundef %38, i64 noundef 0, i1 noundef zeroext true, i1 noundef zeroext false, i1 noundef zeroext false)
  store ptr %39, ptr %5, align 8
  %40 = load ptr, ptr %5, align 8
  %41 = icmp eq ptr %40, null
  br i1 %41, label %42, label %43

42:                                               ; preds = %28
  store i32 2, ptr %7, align 4
  br label %45, !llvm.loop !19

43:                                               ; preds = %28
  %44 = load ptr, ptr %5, align 8
  call void @PrepareRedoAdd(ptr noundef %44, i64 noundef 0, i64 noundef 0, i16 noundef zeroext 0)
  store i32 0, ptr %7, align 4
  br label %45

45:                                               ; preds = %43, %42
  call void @llvm.lifetime.end.p0(i64 8, ptr %5) #12
  call void @llvm.lifetime.end.p0(i64 8, ptr %4) #12
  call void @llvm.lifetime.end.p0(i64 4, ptr %3) #12
  %46 = load i32, ptr %7, align 4
  switch i32 %46, label %54 [
    i32 0, label %47
    i32 2, label %12
  ]

47:                                               ; preds = %45
  br label %48

48:                                               ; preds = %47, %22, %16
  br label %12, !llvm.loop !19

49:                                               ; preds = %12
  %50 = load ptr, ptr @MainLWLockArray, align 8
  %51 = getelementptr inbounds %union.LWLockPadded, ptr %50, i64 18
  call void @LWLockRelease(ptr noundef %51)
  %52 = load ptr, ptr %1, align 8
  %53 = call i32 @FreeDir(ptr noundef %52)
  call void @llvm.lifetime.end.p0(i64 8, ptr %2) #12
  call void @llvm.lifetime.end.p0(i64 8, ptr %1) #12
  ret void

54:                                               ; preds = %45
  unreachable
}