; Function Attrs: nounwind uwtable
define dso_local void @restoreTwoPhaseData() local_unnamed_addr #0 {
  %1 = load ptr, ptr @MainLWLockArray, align 8
  %2 = getelementptr inbounds nuw i8, ptr %1, i64 2304
  %3 = tail call zeroext i1 @LWLockAcquire(ptr noundef nonnull %2, i32 noundef 0) #14
  %4 = tail call ptr @AllocateDir(ptr noundef nonnull @.str.14) #14
  %5 = tail call ptr @ReadDir(ptr noundef %4, ptr noundef nonnull @.str.14) #14
  %.not13 = icmp eq ptr %5, null
  br i1 %.not13, label %._crit_edge, label %.lr.ph

.lr.ph:                                           ; preds = %0, %.backedge
  %6 = phi ptr [ %18, %.backedge ], [ %5, %0 ]
  %7 = getelementptr inbounds nuw i8, ptr %6, i64 19
  %8 = tail call i64 @strlen(ptr noundef nonnull dereferenceable(1) %7) #16
  %9 = icmp eq i64 %8, 16
  br i1 %9, label %10, label %.backedge

10:                                               ; preds = %.lr.ph
  %11 = tail call i64 @strspn(ptr noundef nonnull %7, ptr noundef nonnull @.str.17) #16
  %12 = icmp eq i64 %11, 16
  br i1 %12, label %13, label %.backedge

13:                                               ; preds = %10
  %14 = tail call i64 @strtoul(ptr noundef nonnull captures(none) %7, ptr noundef null, i32 noundef 16) #14
  %15 = trunc i64 %14 to i32
  %16 = tail call fastcc ptr @ProcessTwoPhaseBuffer(i32 noundef %15, i64 noundef 0, i1 noundef zeroext true, i1 noundef zeroext false, i1 noundef zeroext false)
  %17 = icmp eq ptr %16, null
  br i1 %17, label %.backedge, label %.thread

.thread:                                          ; preds = %13
  tail call void @PrepareRedoAdd(ptr noundef nonnull %16, i64 noundef 0, i64 noundef 0, i16 noundef zeroext 0)
  br label %.backedge

.backedge:                                        ; preds = %.lr.ph, %10, %.thread, %13
  %18 = tail call ptr @ReadDir(ptr noundef %4, ptr noundef nonnull @.str.14) #14
  %.not = icmp eq ptr %18, null
  br i1 %.not, label %._crit_edge, label %.lr.ph, !llvm.loop !19

._crit_edge:                                      ; preds = %.backedge, %0
  %19 = load ptr, ptr @MainLWLockArray, align 8
  %20 = getelementptr inbounds nuw i8, ptr %19, i64 2304
  tail call void @LWLockRelease(ptr noundef nonnull %20) #14
  %21 = tail call i32 @FreeDir(ptr noundef %4) #14
  ret void
}